; Function Attrs: nounwind uwtable
define void @_ZTvn16_n24_N5osgeo4proj9operation10ConversionD0Ev(ptr noundef %0) unnamed_addr #4 align 2 personality ptr @__gxx_personality_v0 {
  %2 = getelementptr inbounds i8, ptr %0, i64 -16
  %3 = load ptr, ptr %2, align 8, !tbaa !3
  %4 = getelementptr inbounds i8, ptr %3, i64 -24
  %5 = load i64, ptr %4, align 8
  %6 = getelementptr inbounds i8, ptr %2, i64 %5
  store ptr getelementptr inbounds nuw inrange(-24, 72) (i8, ptr @_ZTVN5osgeo4proj9operation10ConversionE, i64 24), ptr %6, align 8, !tbaa !3
  %7 = getelementptr inbounds nuw i8, ptr %6, i64 24
  store ptr getelementptr inbounds nuw inrange(-88, 56) (i8, ptr @_ZTVN5osgeo4proj9operation10ConversionE, i64 184), ptr %7, align 8, !tbaa !3
  %8 = getelementptr i8, ptr %6, i64 40
  store ptr getelementptr inbounds nuw inrange(-16, 24) (i8, ptr @_ZTVN5osgeo4proj9operation10ConversionE, i64 256), ptr %8, align 8, !tbaa !3
  %9 = getelementptr i8, ptr %6, i64 48
  store ptr getelementptr inbounds nuw inrange(-16, 24) (i8, ptr @_ZTVN5osgeo4proj9operation10ConversionE, i64 296), ptr %9, align 8, !tbaa !3
  %10 = getelementptr i8, ptr %6, i64 72
  store ptr getelementptr inbounds nuw inrange(-16, 24) (i8, ptr @_ZTVN5osgeo4proj9operation10ConversionE, i64 336), ptr %10, align 8, !tbaa !3
  %11 = getelementptr i8, ptr %6, i64 80
  store ptr getelementptr inbounds nuw inrange(-16, 24) (i8, ptr @_ZTVN5osgeo4proj9operation10ConversionE, i64 376), ptr %11, align 8, !tbaa !3
  %12 = getelementptr inbounds nuw i8, ptr %6, i64 16
  %13 = load ptr, ptr %12, align 8, !tbaa !11
  %.not.i.i.i.i = icmp eq ptr %13, null
  br i1 %.not.i.i.i.i, label %_ZN5osgeo4proj9operation10ConversionD0Ev.exit, label %_ZNKSt14default_deleteIN5osgeo4proj9operation10Conversion7PrivateEEclEPS4_.exit.i.i.i.i

_ZNKSt14default_deleteIN5osgeo4proj9operation10Conversion7PrivateEEclEPS4_.exit.i.i.i.i: ; preds = %1
  tail call void @_ZdlPvm(ptr noundef nonnull %13, i64 noundef 1) #31
  br label %_ZN5osgeo4proj9operation10ConversionD0Ev.exit

_ZN5osgeo4proj9operation10ConversionD0Ev.exit:    ; preds = %1, %_ZNKSt14default_deleteIN5osgeo4proj9operation10Conversion7PrivateEEclEPS4_.exit.i.i.i.i
  store ptr null, ptr %12, align 8, !tbaa !11
  tail call void @_ZN5osgeo4proj9operation15SingleOperationD2Ev(ptr noundef nonnull align 8 dereferenceable(24) %6, ptr noundef nonnull getelementptr inbounds nuw (i8, ptr @_ZTTN5osgeo4proj9operation10ConversionE, i64 8)) #32
  tail call void @_ZN5osgeo4proj9operation19CoordinateOperationD2Ev(ptr noundef nonnull align 8 dereferenceable(72) %7) #32
  tail call void @_ZdlPvm(ptr noundef nonnull align 8 dereferenceable(24) %6, i64 noundef 96) #31
  ret void
}